; Function Attrs: mustprogress uwtable
define noundef nonnull align 8 dereferenceable(56) ptr @_ZN6google8protobuf8internal10LogMessagelsEl(ptr noundef nonnull returned align 8 dereferenceable(56) %0, i64 noundef %1) local_unnamed_addr #3 align 2 {
  %3 = alloca [128 x i8], align 16
  %4 = call i32 (ptr, i64, ptr, ...) @snprintf(ptr noundef nonnull dereferenceable(1) %3, i64 noundef 128, ptr noundef nonnull @.str.17, i64 noundef %1) #16
  %5 = getelementptr inbounds i8, ptr %3, i64 127
  store i8 0, ptr %5, align 1
  %6 = getelementptr inbounds i8, ptr %0, i64 24
  %7 = call noundef nonnull align 8 dereferenceable(32) ptr @_ZNSt7__cxx1112basic_stringIcSt11char_traitsIcESaIcEEpLEPKc(ptr noundef nonnull align 8 dereferenceable(32) %6, ptr noundef nonnull %3)
  ret ptr %0
}